
 Start         Length     Name                   Class
 0000:00000000 000100000H ROM                    CODE
 0000:00000000 000100000H RAM                    


  Address         Publics by Value

 0000:00004130       motor_cos_lut
 0000:00005138       motor_reciprocal_lut
 0000:00007164       i2c_bits_unk2
 0000:00007288       i2c_start
 0000:000073E8       i2c_bits_unk1
 0000:000074F8       i2c_byte_send
 0000:00007618       i2c_byte_recv
 0000:00007730       i2c_write_bytes
 0000:00007F00       i2c_read_bytes_during_init
 0000:00008688       i2c_read_bytes
 0000:00008C80       gpio_set_bits
 0000:00008C84       gpio_clear_bits
 0000:00008C88       gpio_configuration_lock
 0000:00008CEC       motor_encoder_cal1_unit_conversion
 0000:00008D14       motor_update_angle_filters
 0000:00008DF0       motor_update_ccr_values
 0000:00008E9C       motor_disabled
 0000:00008F18       jpt_8008F14
 0000:000090AC       motor_sin_lut
 0000:0000A0B4       motor_adc_per_axis_filter
 0000:0000A0F4       update_tim2_velocity_position_accum
 0000:0000A18C       motor_enable_or_disable_in_current_mode
 0000:0000A1AA       jpt_800A1A6
 0000:0000A1B0       motor_mode_4
 0000:0000A1BC       motor_mode_3
 0000:0000A1C2       motor_mode_5
 0000:0000A1D6       motor_mode_2
 0000:0000A224       motor_mode_1_normal
 0000:0000A22A       motor_mode_6
 0000:0000A24C       motor_is_enabled
 0000:0000A268       motor_is_disabled
 0000:0000A286       motor_systick
 0000:0000A2CC       motor_mode_1_3_5
 0000:0000A30C       tim2_velocity_command_adjust
 0000:0000A370       tim2_pc_attached_motor_mode_not1
 0000:0000A3F8       motor_mainloop_poll
 0000:0000A65A       motor_adc_update
 0000:0000A760       motor_update_overcurrent_counter
 0000:0000A7BE       counter_underflowed
 0000:0000A7D2       delay_loop
 0000:0000A808       nullsub_1
 0000:0000A80A       mainloop_motor_update
 0000:0000A876       checksum16
 0000:0000AAE4       tim2_normal_motor_mode
 0000:0000AB80       input_voltage_update
 0000:0000ABE6       tim2_body
 0000:0000AC3C       special_for_motor_mode_6
 0000:0000AC74       normal_motor_mode
 0000:0000ACA8       pc_is_attached_motor_not_normal
 0000:0000ACF4       tim4_body
 0000:0000B322       follow_deadzone
 0000:0000B338       follow_disabled
 0000:0000B5CC       int64_divrem
 0000:0000B610       uint64_divrem
 0000:0000B720       int32_to_float32
 0000:0000B750       float32_div
 0000:0000B84C       float32_mul
 0000:0000B924       float32_to_int32
 0000:0000B968       float32_to_float64
 0000:0000B9B8       float64_div
 0000:0000BC00       float64_mul
 0000:0000BDA4       float64_to_float32
 0000:0000BE34       clear_interrupts
 0000:0000BE3C       restore_interrupts
 0000:0000BE44       timer_setup_tim1_tim8
 0000:0000C11C       timer_ack
 0000:0000C218       tim2_gpiorelated_unk
 0000:0000C2B0       panic_unk
 0000:0000C36A       init_imutype_68
 0000:0000C512       init_imutype_70
 0000:0000C6BA       imu_init_loop
 0000:0000C70C       imu_accel_filter
 0000:0000C7B4       imu_poll
 0000:0000CA48       handle_cmd04_imu_calibrate
 0000:0000CA96       cmd07_sub
 0000:0000CAE4       stabilizer_tick_body
 0000:0000CE18       int32_to_float64
 0000:0000CE44       float64_sin_cos
 0000:0000D270       float32_sub
 0000:0000D358       float32_add
 0000:0000D450       serial1_init
 0000:0000D510       usart1_isr_2
 0000:0000D558       serial3_begin_command_dma
 0000:0000D594       serial1_send_command_vararg
 0000:0000D640       serial1_send_command
 0000:0000D6A8       serial1_handle_packet
 0000:0000D6CE       jpt_800D6CA
 0000:0000D72E       cmd01_joystick
 0000:0000D7D4       cmd03_motor_onoff
 0000:0000D7E8       cmd04_imu_calibrate
 0000:0000D7F2       cmd05_save
 0000:0000D80A       cmd06_peek
 0000:0000D854       cmd07_write_adjust
 0000:0000D866       cmd08_poke
 0000:0000D878       cmd09_read_adjusts
 0000:0000D8F8       cmd0a_set_unk_byte
 0000:0000D90A       cmd0b_set_pc_attached
 0000:0000D91C       cmd0c_capture_cal_angle
 0000:0000D94E       cmd30_toggle_joystick_param68
 0000:0000D970       serial1_handle_read
 0000:0000D984       jpt_800D980
 0000:0000DA60       serial1_poll
 0000:0000DADC       nullsub_44
 0000:0000DFAC       float64_add
 0000:0000E094       float64_cmp
 0000:0000E0C4       float64_cmp_1
 0000:0000E10C       stabilizer_write_outputs
 0000:0000E29C       stabilizer_transform_unk
 0000:0000E614       float64_sub
 0000:0000EBFC       usart_cr3_set_bit
 0000:0000EC0C       memcpy
 0000:0000EC84       init_sub_800EC84
 0000:0000ED44       param_init
 0000:0000F110       save_params_to_eeprom
 0000:0000F3AC       float32_cmp
 0000:0000F3D0       float64_asin
 0000:0000F4C8       float64_atan2
 0000:0000F594       float32_cmp_unk
 0000:0000F820       flash_unlock
 0000:0000F832       flash_set_reserved_bit
 0000:0000FA6C       watchdog_iwdg_unlock
 0000:0000FA72       watchdog_iwdg_set_prescaler
 0000:0000FA78       watchdog_iwdg_set_reload
 0000:0000FA7E       watchdog_iwdg_reload
 0000:0000FA88       watchdog_iwdg_start
 0000:0000FAA0       memset
 0000:0000FAD4       float64_asin_sub1
 0000:0000FBF0       float64_asin_sub2
 0000:0000FDD0       float64_unk_classify
 0000:00010168       main
 0000:0001075C       float32_cmp_unk_0
 0000:00010984       adc_acknowledge
 0000:0001098F       hard_fault
 0000:00010991       memmanage_fault
 0000:00010993       bus_fault
 0000:00010994       usage_fault
 0000:0001099C       systick_isr
 0000:000109B0       nullsub_2
 0000:000109B2       nullsub_3
 0000:000109B4       nullsub_4
 0000:000109B6       nullsub_5
 0000:000109B8       nullsub_6
 0000:000109BA       nullsub_7
 0000:000109BC       nullsub_8
 0000:000109BE       nullsub_9
 0000:000109C0       nullsub_10
 0000:000109C2       nullsub_11
 0000:000109C4       nullsub_12
 0000:000109C6       nullsub_13
 0000:000109C8       nullsub_14
 0000:000109CA       nullsub_15
 0000:000109CC       dma1_ch4_isr
 0000:000109D0       nullsub_16
 0000:000109D2       nullsub_17
 0000:000109D4       nullsub_18
 0000:000109D6       adc_isr
 0000:00010A02       nullsub_19
 0000:00010A04       nullsub_20
 0000:00010A06       nullsub_21
 0000:00010A08       can_sce_isr
 0000:00010A32       nullsub_22
 0000:00010A34       tim1_break_isr
 0000:00010A3C       tim1_update_isr
 0000:00010A44       nullsub_23
 0000:00010A46       tim1_cc_isr
 0000:00010A4E       tim2_isr
 0000:00010A52       nullsub_24
 0000:00010A54       tim4_isr
 0000:00010A6A       nullsub_25
 0000:00010A6C       nullsub_26
 0000:00010A6E       nullsub_27
 0000:00010A70       nullsub_28
 0000:00010A72       spi_isr
 0000:00010AD4       nullsub_29
 0000:00010AD6       usart1_isr
 0000:00010ADA       nullsub_30
 0000:00010ADC       nullsub_31
 0000:00010ADE       nullsub_32
 0000:00010AE0       nullsub_33
 0000:00010AE2       nullsub_34
 0000:00010AE4       nullsub_35
 0000:00010AE6       nullsub_36
 0000:00010AE8       tim8_trg_com_isr
 0000:00010AF0       nullsub_37
 0000:00010AF2       adc3_isr
 0000:00010AFC       nullsub_38
 0000:00010AFE       nullsub_39
 0000:00010B00       nullsub_40
 0000:00010B02       nullsub_41
 0000:00010B04       nullsub_42
 0000:00010B06       nullsub_43
 0000:00010B08       tim6_isr
 0000:00010B10       tim7_isr
 0000:00010B60       can_unk_switch
 0000:00010DF6       entry_from_bootloader
 0000:00000000       imu_accel_xout_high
 0000:00000001       imu_accel_xout_low
 0000:00000002       imu_accel_yout_high
 0000:00000003       imu_accel_yout_low
 0000:00000004       imu_accel_zout_high
 0000:00000005       imu_accel_zout_low
 0000:00000006       imu_temp_out_high
 0000:00000007       imu_temp_out_low
 0000:00000008       imu_gyro_xout_high
 0000:00000009       imu_gyro_xout_low
 0000:0000000A       imu_gyro_yout_high
 0000:0000000B       imu_gyro_yout_low
 0000:0000000C       imu_gyro_zout_high
 0000:0000000D       imu_gyro_zout_low
 0000:00000022       imu_gyro_z
 0000:00000024       imu_gyro_x
 0000:00000026       imu_gyro_y
 0000:00000028       imu_temp_word
 0000:0000002A       imu_accel_z
 0000:0000002C       imu_accel_x
 0000:0000002E       imu_accel_y
 0000:00000030       imu_table_index
 0000:00000054       imu_gyro_z_degsec_f32
 0000:00000058       imu_gyro_x_degsec_f32
 0000:0000005C       imu_gyro_y_degsec_f32
 0000:00000060       accel_z_f32
 0000:00000064       accel_x_f32
 0000:00000068       accel_y_f32
 0000:0000006C       param59_in_float32_imu_cal_axis0
 0000:00000070       param5A_in_float32_imu_cal_axis1
 0000:00000074       param5B_in_float32_imu_cal_axis2
 0000:00000078       gyro_calibrated_z_degsec_f32
 0000:0000007C       gyro_calibrated_x_degsec_f32
 0000:00000080       gyro_calibrated_y_degsec_f32
 0000:00000084       gyro_calibrated_z_radsec_f32
 0000:00000088       gyro_calibrated_x_radsec_f32
 0000:0000008C       gyro_calibrated_y_radsec_f32
 0000:00000090       param5C_in_float32
 0000:00000094       param5D_in_float32
 0000:00000098       param5E_in_float32
 0000:0000009C       accel_calibrated_z_f32
 0000:000000A0       accel_calibrated_x_f32
 0000:000000A4       accel_calibrated_y_f32
 0000:000002CC       accel_z_filter_index
 0000:000002D0       accel_z_filter_table1
 0000:000002D4       accel_z_filter_table2
 0000:000002D8       accel_x_filter_index
 0000:000002DC       accel_x_filter_table1
 0000:000002E0       accel_x_filter_table2
 0000:000002E4       accel_y_filter_index
 0000:000002E8       accel_y_filter_table1
 0000:000002EC       accel_y_filter_table2
 0000:000002F0       enable_sending_cmd00_stabilization
 0000:000002F4       joystick_field3_mode
 0000:000002F5       value_from_cmd0a
 0000:000002F7       follow_hysteresis_flag
 0000:000002FB       joystick_mode_temp
 0000:0000030A       joystick_field0_pitch
 0000:0000030C       joystick_field2_yaw
 0000:00000310       tim4_sticky_motor_command_partial
 0000:00000314       gyro_local_zaxis_degsec_10x_int32
 0000:00000338       local_follow_accumulator
 0000:00000340       adcch2_fir_index
 0000:00000342       adc2_data_ch2
 0000:00000344       adc1_data_ch2
 0000:00000348       adcch2_fir_array
 0000:00000388       adcch2_fir_accum
 0000:00000398       stabilizer_f32_yaw_x
 0000:0000039C       stabilizer_f32_yaw_y
 0000:000003A8       stabilizer_out_f32_yaw_radians
 0000:000003AC       stabilizer_out_f32_cmd00_roll
 0000:000003B0       stabilizer_out_f32_local_pitch
 0000:000003B4       stabilizer_out_f32_cmd00_yaw
 0000:000003BC       stabilizer_transform_out_1
 0000:000003C0       stabilizer_transform_out_2
 0000:000003C4       stabilizer_transform_out_3
 0000:000003C8       stabilizer_transform_out_4
 0000:000003CC       based_on_accel_is_nearly_zero_f32
 0000:000003D8       param00_checksum
 0000:000003DA       param01_flags
 0000:000003DC       param02
 0000:000003DE       param03
 0000:000003E0       param04_imu_angular_velocity
 0000:000003E2       param05_fir_iir_current_target
 0000:000003E4       param06_fir_iir_current_sum
 0000:000003E6       param07_measured_input_voltage
 0000:000003E8       param08
 0000:000003EA       param09_stabilizer_input
 0000:000003EC       param0a
 0000:000003EE       param0b_scale
 0000:000003F0       param0c
 0000:000003F2       param0d_unk_tim2_denominator
 0000:000003F4       param0e_eq_90
 0000:000003F6       param0f_unk_tim2_numerator
 0000:000003F8       param10
 0000:000003FA       param11
 0000:000003FC       param12
 0000:000003FE       param13_adc1_ch1_scale
 0000:00000400       param14_adc2_ch1_scale
 0000:00000402       param15_adc1ch1_offset
 0000:00000404       param16_adc2ch1_offset
 0000:00000406       param17_input_voltage_scale
 0000:00000408       param18_motor_mode
 0000:0000040A       param19
 0000:0000040C       param1a
 0000:0000040E       param1b
 0000:00000410       param1c
 0000:00000412       param1d
 0000:00000414       param1e
 0000:00000416       param1f
 0000:00000418       param20
 0000:0000041A       param21
 0000:0000041C       param22
 0000:0000041E       param23
 0000:00000420       param24
 0000:00000422       param25
 0000:00000424       param26
 0000:00000426       param27_eq_16384
 0000:00000428       param28_filtered_cal1_angle
 0000:0000042A       param29_eq_200
 0000:0000042C       param2a_eq_20
 0000:0000042E       param2b
 0000:00000430       param2c_encoder_position
 0000:00000432       param2d
 0000:00000434       param2e_motor_poweroff_flags
 0000:00000436       param2f
 0000:00000438       param30
 0000:0000043A       param31
 0000:0000043C       param32
 0000:0000043E       param33
 0000:00000440       param34
 0000:00000442       param35
 0000:00000444       param36
 0000:00000446       param37
 0000:00000448       param38
 0000:0000044A       param39
 0000:0000044C       param3a
 0000:0000044E       param3b
 0000:00000450       param3c
 0000:00000452       param3d
 0000:00000454       param3e
 0000:00000456       param3f
 0000:00000458       param40
 0000:0000045A       param41
 0000:0000045C       param42
 0000:0000045E       param43
 0000:00000460       param44
 0000:00000462       param45
 0000:00000464       param46
 0000:00000466       param47_motor_adc_target_current_sum
 0000:00000468       param48_motor_adc_rotated_current_sum
 0000:0000046A       param49_mode6_output
 0000:0000046C       param4a
 0000:0000046E       param4b_offset_for_param08
 0000:00000470       param4c
 0000:00000472       param4d_cal0
 0000:00000474       param4e_manual1
 0000:00000476       param4f_manual2
 0000:00000478       param50
 0000:0000047A       param51_pcatt_like_1b
 0000:0000047C       param52_pcatt_like_1c
 0000:0000047E       param53
 0000:00000480       param54
 0000:00000482       param55
 0000:00000484       param56
 0000:00000486       param57
 0000:00000488       param58
 0000:0000048A       param59
 0000:0000048C       param5a
 0000:0000048E       param5b
 0000:00000490       param5c
 0000:00000492       param5d
 0000:00000494       param5e
 0000:00000496       param5f
 0000:00000498       param60
 0000:0000049A       param61
 0000:0000049C       param62_gyro_to_param04_scale
 0000:0000049E       param63_follow_enable
 0000:000004A0       param64_cal1
 0000:000004A2       param65_follow_loop_rate
 0000:000004A4       param66
 0000:000004A6       param67
 0000:000004A8       param68
 0000:000004AA       param69_imu_type
 0000:000004AC       param6a
 0000:000004AE       param6b
 0000:000004B0       param6c
 0000:000004B2       param6d
 0000:000004B4       param6e
 0000:000004B6       param6f_adc1_value
 0000:000004B8       param70_adc2_value
 0000:000004BA       param71
 0000:000004BC       param72
 0000:000004BE       param73
 0000:000004C0       param74
 0000:000004C2       param75
 0000:000004C4       param76
 0000:000004C6       param77
 0000:000004C8       param78
 0000:000004CA       param79
 0000:000004CC       param7a
 0000:000004CE       param7b
 0000:000004D0       param7c
 0000:000004D2       param7d
 0000:000004D4       param7e
 0000:000004D6       param7f_version
 0000:000007D8       motor_controller_power_command
 0000:000007DC       adc1_ch1_nofilter
 0000:000007E0       adc2_ch1_nofilter
 0000:000007EC       tim2_200007EC
 0000:000007F0       post_motor_enable_flag
 0000:000007F4       motor_mode_debug_enum
 0000:000007F8       motor_pwm_tim1_period
 0000:00000800       tim2_20000800
 0000:00000804       motor_adc_transform_scale
 0000:00000808       tim2_20000808
 0000:0000080C       motor_filtered_cal1_angle
 0000:00000820       motor_cal1_special_iir_result
 0000:00000824       motor_mode2_cal1_debug_addend
 0000:00000828       input_volts
 0000:0000082C       motor_rotated_filtered_adcsum
 0000:00000830       motor_rotated_filtered_adc1
 0000:00000844       systick_counter
 0000:0000084C       motor_adc1_target_value
 0000:00000850       motor_adc1_rotated
 0000:00000854       motor_adc1_param19_preaccum_filter_coeff
 0000:00000858       motor_adc1_param1a_postaccum_filter_coeff
 0000:00000860       motor_adc1_rotated_minus_bias
 0000:00000864       motor_adc1_accumulator
 0000:00000868       motor_adc1_postaccum_saturate_limit
 0000:0000086C       motor_adc1_filtered
 0000:00000870       motor_adcsum_target_value
 0000:00000874       motor_adcsum_rotated
 0000:00000878       motor_adcsum_param19_preaccum_filter_coeff
 0000:0000087C       motor_adcsum_param1a_postaccum_filter_coeff
 0000:00000884       motor_adcsum_rotated_minus_bias
 0000:00000888       motor_adcsum_accumulator
 0000:0000088C       motor_adcsum_postaccum_saturate_limit
 0000:00000890       motor_adcsum_filtered
 0000:00000894       tim1_ccr1
 0000:00000896       tim1_ccr2
 0000:00000898       tim1_ccr3
 0000:0000089C       motor_cal1_iir_result
 0000:000008A0       motor_cal1_fir_accum
 0000:000008A4       motor_cal1_fir_array6
 0000:000008F4       motor_cal1_fir_index
 0000:000008F8       motor_cal1_iir_accum
 0000:000008FC       motor_cal1_special_iir
 0000:00000900       motor_filtered_cal1_high_10bits
 0000:00000904       motor_adc_fir32_index
 0000:00000908       motor_fir_adc_measured_current_sum
 0000:0000090C       motor_fir_adc_target_current_sum
 0000:00000910       adc1_data_ch1
 0000:00000914       adc2_data_ch1
 0000:00000918       adc1_ch1_temp
 0000:0000091C       adc2_ch1_temp
 0000:00000920       motor_fir_array_adc_rotated_current_sum
 0000:000009A0       motor_fir_array_adc_target_sum
 0000:00000A20       motor_fir_accum_adc_rotated_current_sum
 0000:00000A24       motor_fir_accum_adc_target_sum
 0000:00000AA8       serial1_payload
 0000:00000B30       serial1_current_state
 0000:00000B31       serial1_target_mcu
 0000:00000B32       serial1_command
 0000:00000B34       serial1_payload_size
 0000:00000B36       serial1_payload_offset
 0000:00000B38       serial1_calc_crc
 0000:00000B3A       serial1_incoming_crc
 0000:00000B40       serial1_fifo
 0000:00000C4C       param0b_copy
 0000:00000C50       tim2_velocity_scale
 0000:00000C54       tim2_motor_velocity_command
 0000:00000C60       tim2_init_calculation_result
 0000:00000C68       maybe_param1d_in_mode35
 0000:00000C6C       maybe_param1e_in_mode35
 0000:00000C70       tim2_scaled_velocity
 0000:00000C74       pre_param04_tim2
 0000:00000C78       post_param1b_or_51
 0000:00000C7C       post_param1c_or_52
 0000:00000C88       tim2_velocity_position_accum
 0000:00000C90       accum_c88_div97B4
 0000:00000C94       motor_mode2_cal1_debug_result
 0000:00000C98       motor_mode2_cal1_angle_accum_100x
 0000:00000CA0       pre_param04_filter_state
 0000:00000CA4       motor_fir_iir_adc_current_sum
 0000:00000CA8       motor_fir_iir_adc_current_target
 0000:00000D50       mainflag_pc_attached
 0000:00000D5C       tim2_div3_tick_enable_flag
 0000:00000D60       motor_overcurrent_counter
 0000:00000D64       tim2_div3_counter
 0000:00000D68       tim2_mod3_counter
 0000:00000D6C       tim4_motor_command_input
 0000:00000D70       encoder_minus_cal1_angle
 0000:00000D72       encoder_position
 0000:00000D75       motor_enable_flag
 0000:00001D78       stack_top
